S'Amodule'
p0
.I0
.I1
.I4576
.I0
.I0
.I312
.I244
.S'U'
p0
.S'M'
p0
.S'L'
p0
.I0
.S'S'
p0
.S'B'
p0
.S'C'
p0
.I0
.S'A'
p0
.S'D'
p0
.S'C'
p0
.I0
.S'R'
p0
.S'O'
p0
.S'R'
p0
.I0
.S'A'
p0
.S'S'
p0
.S'R'
p0
.I0
.S'L'
p0
.S'S'
p0
.S'L'
p0
.I0
.S'L'
p0
.S'E'
p0
.S'N'
p0
.I0
.S'C'
p0
.S'H'
p0
.S'R'
p0
.I0
.S'O'
p0
.S'R'
p0
.S'D'
p0
.I0
.S'F'
p0
.S'L'
p0
.S'T'
p0
.I0
.S'F'
p0
.S'L'
p0
.S'O'
p0
.S'O'
p0
.S'R'
p0
.I0
.I0
.I0
.S'O'
p0
.S'D'
p0
.S'D'
p0
.I0
.S'A'
p0
.S'B'
p0
.S'S'
p0
.I0
.S'L'
p0
.S'E'
p0
.S'D'
p0
.I0
.S'U'
p0
.S'N'
p0
.S'P'
p0
.S'K'
p0
.I0
.I0
.I0
.I0
.S'P'
p0
.S'A'
p0
.S'C'
p0
.S'K'
p0
.I0
.I0
.I0
.I0
.S'N'
p0
.S'E'
p0
.S'W'
p0
.I0
.S'A'
p0
.S'S'
p0
.S'S'
p0
.S'E'
p0
.S'R'
p0
.S'T'
p0
.I0
.I0
.S'E'
p0
.S'X'
p0
.S'C'
p0
.S'L'
p0
.I0
.I0
.I0
.I0
.S'I'
p0
.S'N'
p0
.S'C'
p0
.S'L'
p0
.I0
.I0
.I0
.I0
.S'D'
p0
.S'E'
p0
.S'C'
p0
.I0
.S'I'
p0
.S'N'
p0
.S'C'
p0
.I0
.S'S'
p0
.S'E'
p0
.S'T'
p0
.I0
.S'B'
p0
.S'O'
p0
.S'O'
p0
.S'L'
p0
.S'E'
p0
.S'A'
p0
.S'N'
p0
.I0
.S'B'
p0
.S'Y'
p0
.S'T'
p0
.S'E'
p0
.I0
.I0
.I0
.I0
.S'C'
p0
.S'H'
p0
.S'A'
p0
.S'R'
p0
.I0
.I0
.I0
.I0
.S'L'
p0
.S'O'
p0
.S'N'
p0
.S'G'
p0
.S'R'
p0
.S'E'
p0
.S'A'
p0
.S'L'
p0
.I0
.I0
.I0
.I0
.S'R'
p0
.S'E'
p0
.S'A'
p0
.S'L'
p0
.I0
.I0
.I0
.I0
.S'L'
p0
.S'O'
p0
.S'N'
p0
.S'G'
p0
.S'I'
p0
.S'N'
p0
.S'T'
p0
.I0
.S'I'
p0
.S'N'
p0
.S'T'
p0
.S'E'
p0
.S'G'
p0
.S'E'
p0
.S'R'
p0
.I0
.S'H'
p0
.I0
.I0
.I0
.S'C'
p0
.S'O'
p0
.S'N'
p0
.S'D'
p0
.I0
.I0
.I0
.I0
.S'S'
p0
.S'I'
p0
.S'Z'
p0
.S'E'
p0
.I0
.I0
.I0
.I0
.S'A'
p0
.S'D'
p0
.S'R'
p0
.I0
.S'V'
p0
.S'A'
p0
.S'L'
p0
.I0
.S'R'
p0
.S'E'
p0
.S'G'
p0
.I0
.S'B'
p0
.S'I'
p0
.S'T'
p0
.I0
.S'L'
p0
.S'D'
p0
.S'R'
p0
.S'E'
p0
.S'G'
p0
.I0
.I0
.I0
.S'L'
p0
.S'D'
p0
.S'P'
p0
.S'S'
p0
.S'R'
p0
.I0
.I0
.I0
.S'C'
p0
.S'O'
p0
.S'P'
p0
.S'Y'
p0
.I0
.I0
.I0
.I0
.S'P'
p0
.S'U'
p0
.S'T'
p0
.I0
.S'G'
p0
.S'E'
p0
.S'T'
p0
.I0
.I915
.I1323892760
.I2950692864
.I2699034628
.I2715811848
.I2732589068
.I2365587461
.I2161115136
.I2699034644
.I2162163732
.I3506877004
.I2147483664
.I1074331648
.I3774873620
.I2162163732
.I3506881356
.I2147483664
.I3506882636
.I1074266140
.I2178940936
.I2449473536
.I1074266113
.I2467299328
.I1092091905
.I69795843
.I3909091330
.I1143537664
.I3925868536
.I3774873605
.I2162163732
.I3506888012
.I2147483664
.I2699034644
.I3892314087
.I2162163732
.I3506893132
.I2147483664
.I1074331648
.I3909091367
.I1088946192
.I2365587490
.I1104674816
.I3607101452
.I2162163728
.I3506902348
.I1074266140
.I2178940936
.I1107296262
.I2198863872
.I1092091908
.I2734686208
.I1074266116
.I1109983233
.I3925868538
.I2162163728
.I3506906700
.I2178940940
.I2701131776
.I2162163728
.I3506911564
.I1090519040
.I2701131792
.I2162163728
.I3506915660
.I1090519040
.I2969567245
.I2162163728
.I3506920268
.I1090519040
.I2701131796
.I2162163732
.I3506925644
.I2178940944
.I2701131792
.I2162163728
.I2178940932
.I2685403136
.I3875536901
.I2162163732
.I3506936396
.I2147483664
.I2178940932
.I2685403136
.I2413821952
.I1323827224
.I3338665999
.I1323892748
.I2950692864
.I2365587504
.I2161115136
.I2699034628
.I2162163716
.I3506968396
.I2147483664
.I2699034632
.I2162163720
.I1074331648
.I3774873620
.I2162163720
.I3506976844
.I2178940936
.I3506979148
.I1074266140
.I1092091932
.I2449473536
.I1074266113
.I2467299328
.I1092091905
.I69795843
.I3909091330
.I1143537664
.I3925868536
.I3774873605
.I2162163720
.I3506983244
.I2147483664
.I2699034632
.I3892314089
.I2162163716
.I3506989132
.I2147483668
.I2699034628
.I2162163720
.I1074331648
.I3909091331
.I2162163716
.I1074331648
.I3925868507
.I2162163720
.I2413821952
.I1323827212
.I3338665999
.I1323892748
.I2950692864
.I2699034628
.I2162163716
.I3507028300
.I2415919117
.I1074331648
.I3774873636
.I2162163716
.I3507034188
.I2415919132
.I1074331648
.I3774873628
.I2162163716
.I3507043404
.I2147483668
.I2699034632
.I2162163720
.I1074331648
.I3774873620
.I2162163720
.I3507053388
.I2178940936
.I3507056204
.I1074266140
.I1092091932
.I2449473536
.I1074266113
.I2467299328
.I1092091905
.I69795843
.I3909091330
.I1143537664
.I3925868536
.I3774873605
.I2162163720
.I3507061324
.I2147483664
.I2699034632
.I3892314089
.I3875536898
.I1073741824
.I2699034632
.I3875536898
.I1073741824
.I2699034632
.I2162163720
.I2413821952
.I1323827212
.I3338665999
.I1323892748
.I2950692864
.I2699034628
.I2162163716
.I3507109196
.I2147483668
.I2699034632
.I2162163720
.I1074331648
.I3774873620
.I2162163720
.I3507118156
.I2178940936
.I3507120972
.I1074266140
.I1092091932
.I2449473536
.I1074266113
.I2467299328
.I1092091905
.I69795843
.I3909091330
.I1143537664
.I3925868536
.I3774873605
.I2162163720
.I3507126092
.I2147483664
.I2699034632
.I3892314089
.I2162163720
.I2413821952
.I1323827212
.I3338665999
.I1323892744
.I2950692864
.I1088946180
.I2365587587
.I1104674816
.I3607101452
.I2162163716
.I3507153228
.I1090519040
.I2701131776
.I2162163716
.I3507157068
.I2365587465
.I2177892352
.I2701131796
.I2162163716
.I3507162188
.I1090519040
.I2701131792
.I2162163716
.I2697986048
.I2413821952
.I1323827208
.I3338665999
.I1323892740
.I2950692864
.I2365587470
.I2161115136
.I3507187276
.I2147483668
.I2697986048
.I2413821952
.I1323827204
.I3338665999
.I1323892768
.I2950692864
.I2699034628
.I2715811848
.I2732589068
.I2749366288
.I2766143508
.I1073741824
.I2699034648
.I1073741824
.I2699034652
.I2162163736
.I1074331675
.I3976200218
.I2162163736
.I2178940940
.I17367041
.I3658257948
.I2178940936
.I1572864
.I2415919104
.I1074331648
.I3858759697
.I2162163736
.I1091108887
.I3658262556
.I2178940932
.I1572864
.I2178940952
.I2195718156
.I35192834
.I3658265372
.I2195718152
.I19398657
.I2433744896
.I2969567232
.I2162163736
.I1074266113
.I2699034648
.I3892314083
.I2162163736
.I1091108887
.I3658274076
.I2178940932
.I1572864
.I2178940956
.I2195718164
.I35192834
.I3658276380
.I2195718160
.I19398657
.I2433744896
.I2969567232
.I2162163736
.I1074266113
.I2699034648
.I2162163740
.I1074266113
.I2699034652
.I2162163740
.I2178940948
.I17367041
.I3658283804
.I2178940944
.I1572864
.I2415919104
.I1074331648
.I3925868516
.I2162163736
.I1091108887
.I3658288668
.I2178940932
.I1572864
.I1090519040
.I2969567232
.I2413821952
.I1323827232
.I3338665999
.I1323892768
.I2950692864
.I2699034628
.I2715811848
.I2732589068
.I2749366288
.I2365587548
.I2161115136
.I2699034652
.I2162163740
.I3507343436
.I2147483664
.I2699034648
.I2162163736
.I1074331648
.I3774873620
.I2162163736
.I3507358284
.I1074266140
.I2178940932
.I2449473536
.I1074266113
.I2467299328
.I1092091905
.I69795843
.I3909091330
.I1143537664
.I3925868536
.I3774873607
.I2162163736
.I2699034652
.I2162163740
.I3507368780
.I2147483664
.I2699034648
.I3892314089
.I2162163736
.I1074331648
.I3909091394
.I1088946196
.I2365587490
.I1104674816
.I3607101452
.I2162163732
.I3507388492
.I1090519048
.I2701131776
.I2162163732
.I3507392588
.I1090519040
.I2969567245
.I2162163732
.I3507398988
.I1074266140
.I2178940932
.I1107296262
.I2198863872
.I1092091908
.I2734686208
.I1074266116
.I1109983233
.I3925868538
.I2162163732
.I3507404364
.I1074266168
.I2178940936
.I1107296262
.I2198863872
.I1092091908
.I2734686208
.I1074266116
.I1109983233
.I3925868538
.I2162163732
.I3507409484
.I2178940944
.I2701131828
.I2162163732
.I3507415116
.I2365587495
.I2177892400
.I2701131780
.I1087897648
.I2164260864
.I1092091905
.I2701131776
.I2162163732
.I3507423564
.I2177892392
.I2701131800
.I2162163732
.I3507428428
.I1090519040
.I2701131796
.I2162163732
.I3507432780
.I1090519040
.I2701131792
.I2162163740
.I3507438924
.I2178940948
.I2701131792
.I2162163732
.I2699034648
.I3875536901
.I2430599180
.I1074331648
.I3774873602
.I2162163732
.I2699034648
.I2162163736
.I2413821952
.I1323827232
.I3338665999
.I1323892740
.I2950692864
.I2365587493
.I2161115140
.I2697986048
.I1073741825
.I2697986096
.I2413821952
.I1323827204
.I3338665999
.I1323892756
.I2950692864
.I2699034628
.I2715811848
.I2732589068
.I1088946192
.I2365587470
.I1104674816
.I3607101452
.I2162163728
.I3507518796
.I2178940936
.I2701131776
.I2162163728
.I3507523148
.I2178940940
.I2701131808
.I2162163728
.I3507527244
.I2178940932
.I2701131780
.I2162163728
.I3507531340
.I1090519040
.I2701131804
.I2162163716
.I1091108928
.I3658532380
.I1073807362
.I2365587479
.I14155776
.I2178940944
.I2701131832
.I2162163728
.I2413821952
.I1323827220
.I3338665999
.I1323892764
.I2950692864
.I2699034628
.I2715811848
.I2732589068
.I2749366288
.I2766143508
.I1088946200
.I2365587472
.I1104674816
.I3607101452
.I2162163736
.I3507577164
.I1074266140
.I2178940932
.I2195718152
.I3774873611
.I1109917699
.I1109524482
.I1124073478
.I53018627
.I3725683260
.I2198863872
.I1092091908
.I2734686208
.I1074266116
.I1109983233
.I3925868538
.I2162163736
.I3507582028
.I2178940940
.I2701131776
.I2162163736
.I3507586124
.I2178940944
.I2701131800
.I2162163736
.I3507590476
.I2178940948
.I2701131828
.I2162163736
.I3507594060
.I1090519040
.I2701131796
.I2162163724
.I1074331653
.I3909091332
.I2162163728
.I3507604556
.I2178940952
.I2701131800
.I2162163736
.I3507611212
.I2365587501
.I2177892360
.I2701131792
.I2162163736
.I2697986056
.I2413821952
.I1323827228
.I3338665999
.I1323892740
.I2950692864
.I1073741825
.I1090519044
.I1107296257
.I4160749464
.I2365587470
.I2697986060
.I1073741826
.I1090519042
.I1107296257
.I4160749458
.I2365587462
.I2697986064
.I1073741827
.I1090519043
.I1107296257
.I4160749452
.I2365587462
.I2697986068
.I1073741828
.I1090519044
.I1107296260
.I4160749446
.I2365587462
.I2697986072
.I1073741829
.I1090519045
.I1107296260
.I4160749440
.I2365587462
.I2697986076
.I1073741830
.I1090519046
.I1107296260
.I4160749434
.I2365587462
.I2697986080
.I1073741832
.I1090519048
.I1107296260
.I4160749428
.I2365587462
.I2697986084
.I1073741833
.I1090519049
.I1107296260
.I4160749422
.I2365587462
.I2697986088
.I1073741835
.I1090519051
.I1107296264
.I4160749416
.I2365587462
.I2697986092
.I1073741824
.I2697986056
.I1087897912
.I1090519044
.I1107296263
.I2211446808
.I1140850820
.I4160749443
.I2365587466
.I1087897916
.I1090519044
.I1107296263
.I2211446808
.I1140850810
.I4160749436
.I2365587463
.I1087897920
.I1090519044
.I1107296263
.I2211446808
.I1140850800
.I4160749429
.I2365587463
.I1087897924
.I1090519044
.I1107296263
.I2211446808
.I1140850780
.I4160749422
.I2365587463
.I1087897928
.I1090519044
.I1107296263
.I2211446808
.I1140850770
.I4160749415
.I2365587463
.I1087897932
.I1090519044
.I1107296263
.I2211446808
.I1140850760
.I4160749408
.I2365587463
.I1087897936
.I1090519044
.I1107296263
.I2211446808
.I1140850749
.I4160749401
.I2365587463
.I1087897940
.I1090519044
.I1107296263
.I2211446804
.I1140850739
.I4160749394
.I2365587463
.I1087897944
.I1090519044
.I1107296263
.I2211446808
.I1140850729
.I4160749387
.I2365587463
.I1087897948
.I1090519044
.I1107296263
.I2211446812
.I1140850719
.I4160749380
.I2365587463
.I1087897952
.I1090519046
.I1107296263
.I2211446808
.I1140850709
.I4160749373
.I2365587463
.I1087897960
.I1090519044
.I1107296263
.I2211446800
.I1140850699
.I4160749366
.I2365587463
.I1087897964
.I1090519044
.I1107296263
.I2211446808
.I1140850689
.I4160749359
.I2365587463
.I1087897968
.I1090519044
.I1107296262
.I2211446824
.I1140850769
.I4160749352
.I2365587463
.I1087897972
.I1090519045
.I1107296262
.I2211446824
.I1140850760
.I4160749345
.I2365587463
.I1087897980
.I1090519045
.I1107296262
.I2211446824
.I1140850750
.I4160749338
.I2365587463
.I1087897988
.I1090519044
.I1107296262
.I2211446824
.I1140850739
.I4160749331
.I2365587463
.I1087897992
.I1090519047
.I1107296262
.I2211446824
.I1140850729
.I4160749324
.I2365587463
.I1087898000
.I1090519045
.I1107296262
.I2211446824
.I1140850720
.I4160749317
.I2365587463
.I1087898008
.I1090519045
.I1107296262
.I2211446824
.I1140850710
.I4160749310
.I2365587463
.I1087898016
.I1090519044
.I1107296262
.I2211446824
.I1140850699
.I4160749303
.I2365587463
.I1087898020
.I1090519044
.I1107296262
.I2211446824
.I1140850689
.I4160749296
.I2365587463
.I1087898024
.I1090519044
.I1107296261
.I2211446816
.I1140850688
.I4160749289
.I2365587463
.I1087898028
.I1090519048
.I1107296261
.I2211446800
.I1140850688
.I4160749282
.I2365587463
.I1087898036
.I1090519045
.I1107296261
.I2211446796
.I1140850688
.I4160749275
.I2365587463
.I1087898044
.I1090519045
.I1107296261
.I2211446804
.I1140850688
.I4160749268
.I2365587463
.I1087898052
.I1090519049
.I1107296261
.I2211446812
.I1140850688
.I4160749261
.I2365587463
.I1087898064
.I1090519045
.I1107296261
.I2211446812
.I1140850688
.I4160749254
.I2365587463
.I1087898072
.I1090519048
.I1107296261
.I2211446808
.I1140850688
.I4160749247
.I2365587463
.I1087898080
.I1090519048
.I1107296261
.I2211446808
.I1140850688
.I4160749240
.I1073741824
.I2365587464
.I2697986048
.I4160748963
.I2365587459
.I2161115136
.I3508066636
.I2177892360
.I2701131792
.I2161115136
.I2697986052
.I1073741824
.I2697986056
.I1087898088
.I1090519042
.I1107296263
.I2211446808
.I1140850889
.I4160749221
.I2365587471
.I1087898092
.I1090519045
.I1107296263
.I2211446800
.I1140850879
.I4160749214
.I2365587463
.I1087898100
.I1090519045
.I1107296263
.I2211446808
.I1140850869
.I4160749207
.I2365587463
.I1087898108
.I1090519044
.I1107296263
.I2211446808
.I1140850859
.I4160749200
.I2365587463
.I1087898112
.I1090519044
.I1107296263
.I2211446808
.I1140850850
.I4160749193
.I2365587463
.I1087898116
.I1090519044
.I1107296263
.I2211446808
.I1140850839
.I4160749186
.I2365587463
.I1087898120
.I1090519044
.I1107296263
.I2211446800
.I1140850830
.I4160749179
.I2365587463
.I1087898124
.I1090519046
.I1107296262
.I2211446824
.I1140850830
.I4160749172
.I2365587463
.I1087898132
.I1090519046
.I1107296262
.I2211446824
.I1140850819
.I4160749165
.I2365587463
.I1087898140
.I1090519045
.I1107296262
.I2211446824
.I1140850811
.I4160749158
.I2365587463
.I1087898148
.I1090519044
.I1107296262
.I2211446824
.I1140850800
.I4160749151
.I2365587463
.I1087898152
.I1090519044
.I1107296262
.I2211446824
.I1140850790
.I4160749144
.I2413821952
.I1323827204
.I3338665999
.S'OpenScope'
p0
.I860
.S'CloseScope'
p0
.I956
.S'Init'
p0
.I1764
.I0
.I1
.I2196
.I0
.I0
.I0
.I8
.I12
.I16
.I20
.I24
.I28
.I32
.I36
.I40
.I44
.I0
.I340
.I524
.I724
.I860
.I956
.I996
.I1764
.I0
.I4
.I8
.I12
.I16
.I20
.I24
.I28
.I32
.I36
.I40
.I44
.I56
.I60
.I64
.I68
.I72
.I76
.I80
.I84
.I88
.I92
.I96
.I100
.I104
.I108
.I112
.I116
.I120
.I124
.I128
.I132
.I136
.I140
.I144
.I148
.I152
.I156
.I160
.I164
.I168
.I172
.I176
.I180
.I184
.I188
.I192
.I196
.I200
.I204
.I208
.I212
.I216
.I220
.I224
.I228
.I232
.I236
.I240
.I244
.I248
.I252
.I256
.I260
.I264
.I268
.I272
.I276
.I280
.I284
.I288
.I292
.I296
.I300
.I304
.I308
.I-1
.I0
.I905
.I1
.I2196
.S'O'
p0
.